; Function Attrs: nofree norecurse nosync nounwind memory(argmem: readwrite) uwtable
define internal fastcc range(i64 -48, 4294967296) i64 @HIST_count_parallel_wksp(ptr noundef writeonly captures(none) %0, ptr noundef captures(none) %1, ptr noundef readonly captures(address) %2, i64 noundef %3, i32 noundef range(i32 0, 2) %4, ptr noundef captures(none) %5) unnamed_addr #1 {
  %.ptr = getelementptr i8, ptr %2, i64 %3
  %7 = load i32, ptr %1, align 4, !tbaa !6
  %8 = add i32 %7, 1
  %9 = zext i32 %8 to i64
  %10 = shl nuw nsw i64 %9, 2
  %11 = getelementptr inbounds nuw i8, ptr %5, i64 1024
  %12 = getelementptr inbounds nuw i8, ptr %5, i64 2048
  %13 = getelementptr inbounds nuw i8, ptr %5, i64 3072
  %.not = icmp eq i64 %3, 0
  br i1 %.not, label %14, label %15

14:                                               ; preds = %6
  tail call void @llvm.memset.p0.i64(ptr align 4 %0, i8 0, i64 %10, i1 false)
  store i32 0, ptr %1, align 4, !tbaa !6
  br label %138

15:                                               ; preds = %6
  tail call void @llvm.memset.p0.i64(ptr noundef nonnull align 4 dereferenceable(4096) %5, i8 0, i64 4096, i1 false)
  %.ptr120 = getelementptr i8, ptr %.ptr, i64 -15
  %16 = icmp sgt i64 %3, 19
  br i1 %16, label %.lr.ph.preheader, label %.preheader111

.lr.ph.preheader:                                 ; preds = %15
  %.098112 = getelementptr inbounds nuw i8, ptr %2, i64 4
  %.val = load i32, ptr %2, align 1, !tbaa !6
  br label %.lr.ph

.preheader111:                                    ; preds = %.lr.ph, %15
  %.pn.lcssa = phi ptr [ %2, %15 ], [ %64, %.lr.ph ]
  %17 = icmp ult ptr %.pn.lcssa, %.ptr
  br i1 %17, label %.lr.ph117, label %.preheader110.preheader

.lr.ph:                                           ; preds = %.lr.ph.preheader, %.lr.ph
  %.098115 = phi ptr [ %.098, %.lr.ph ], [ %.098112, %.lr.ph.preheader ]
  %.096114 = phi i32 [ %.val108, %.lr.ph ], [ %.val, %.lr.ph.preheader ]
  %.pn113 = phi ptr [ %64, %.lr.ph ], [ %2, %.lr.ph.preheader ]
  %.098.val = load i32, ptr %.098115, align 1, !tbaa !6
  %18 = getelementptr inbounds nuw i8, ptr %.pn113, i64 8
  %19 = and i32 %.096114, 255
  %20 = zext nneg i32 %19 to i64
  %21 = getelementptr inbounds nuw i32, ptr %5, i64 %20
  %22 = load i32, ptr %21, align 4, !tbaa !6
  %23 = add i32 %22, 1
  store i32 %23, ptr %21, align 4, !tbaa !6
  %24 = lshr i32 %.096114, 8
  %25 = and i32 %24, 255
  %26 = zext nneg i32 %25 to i64
  %27 = getelementptr inbounds nuw i32, ptr %11, i64 %26
  %28 = load i32, ptr %27, align 4, !tbaa !6
  %29 = add i32 %28, 1
  store i32 %29, ptr %27, align 4, !tbaa !6
  %30 = lshr i32 %.096114, 16
  %31 = and i32 %30, 255
  %32 = zext nneg i32 %31 to i64
  %33 = getelementptr inbounds nuw i32, ptr %12, i64 %32
  %34 = load i32, ptr %33, align 4, !tbaa !6
  %35 = add i32 %34, 1
  store i32 %35, ptr %33, align 4, !tbaa !6
  %36 = lshr i32 %.096114, 24
  %37 = zext nneg i32 %36 to i64
  %38 = getelementptr inbounds nuw i32, ptr %13, i64 %37
  %39 = load i32, ptr %38, align 4, !tbaa !6
  %40 = add i32 %39, 1
  store i32 %40, ptr %38, align 4, !tbaa !6
  %.val106 = load i32, ptr %18, align 1, !tbaa !6
  %41 = getelementptr inbounds nuw i8, ptr %.pn113, i64 12
  %42 = and i32 %.098.val, 255
  %43 = zext nneg i32 %42 to i64
  %44 = getelementptr inbounds nuw i32, ptr %5, i64 %43
  %45 = load i32, ptr %44, align 4, !tbaa !6
  %46 = add i32 %45, 1
  store i32 %46, ptr %44, align 4, !tbaa !6
  %47 = lshr i32 %.098.val, 8
  %48 = and i32 %47, 255
  %49 = zext nneg i32 %48 to i64
  %50 = getelementptr inbounds nuw i32, ptr %11, i64 %49
  %51 = load i32, ptr %50, align 4, !tbaa !6
  %52 = add i32 %51, 1
  store i32 %52, ptr %50, align 4, !tbaa !6
  %53 = lshr i32 %.098.val, 16
  %54 = and i32 %53, 255
  %55 = zext nneg i32 %54 to i64
  %56 = getelementptr inbounds nuw i32, ptr %12, i64 %55
  %57 = load i32, ptr %56, align 4, !tbaa !6
  %58 = add i32 %57, 1
  store i32 %58, ptr %56, align 4, !tbaa !6
  %59 = lshr i32 %.098.val, 24
  %60 = zext nneg i32 %59 to i64
  %61 = getelementptr inbounds nuw i32, ptr %13, i64 %60
  %62 = load i32, ptr %61, align 4, !tbaa !6
  %63 = add i32 %62, 1
  store i32 %63, ptr %61, align 4, !tbaa !6
  %.val107 = load i32, ptr %41, align 1, !tbaa !6
  %64 = getelementptr inbounds nuw i8, ptr %.pn113, i64 16
  %65 = and i32 %.val106, 255
  %66 = zext nneg i32 %65 to i64
  %67 = getelementptr inbounds nuw i32, ptr %5, i64 %66
  %68 = load i32, ptr %67, align 4, !tbaa !6
  %69 = add i32 %68, 1
  store i32 %69, ptr %67, align 4, !tbaa !6
  %70 = lshr i32 %.val106, 8
  %71 = and i32 %70, 255
  %72 = zext nneg i32 %71 to i64
  %73 = getelementptr inbounds nuw i32, ptr %11, i64 %72
  %74 = load i32, ptr %73, align 4, !tbaa !6
  %75 = add i32 %74, 1
  store i32 %75, ptr %73, align 4, !tbaa !6
  %76 = lshr i32 %.val106, 16
  %77 = and i32 %76, 255
  %78 = zext nneg i32 %77 to i64
  %79 = getelementptr inbounds nuw i32, ptr %12, i64 %78
  %80 = load i32, ptr %79, align 4, !tbaa !6
  %81 = add i32 %80, 1
  store i32 %81, ptr %79, align 4, !tbaa !6
  %82 = lshr i32 %.val106, 24
  %83 = zext nneg i32 %82 to i64
  %84 = getelementptr inbounds nuw i32, ptr %13, i64 %83
  %85 = load i32, ptr %84, align 4, !tbaa !6
  %86 = add i32 %85, 1
  store i32 %86, ptr %84, align 4, !tbaa !6
  %.val108 = load i32, ptr %64, align 1, !tbaa !6
  %87 = and i32 %.val107, 255
  %88 = zext nneg i32 %87 to i64
  %89 = getelementptr inbounds nuw i32, ptr %5, i64 %88
  %90 = load i32, ptr %89, align 4, !tbaa !6
  %91 = add i32 %90, 1
  store i32 %91, ptr %89, align 4, !tbaa !6
  %92 = lshr i32 %.val107, 8
  %93 = and i32 %92, 255
  %94 = zext nneg i32 %93 to i64
  %95 = getelementptr inbounds nuw i32, ptr %11, i64 %94
  %96 = load i32, ptr %95, align 4, !tbaa !6
  %97 = add i32 %96, 1
  store i32 %97, ptr %95, align 4, !tbaa !6
  %98 = lshr i32 %.val107, 16
  %99 = and i32 %98, 255
  %100 = zext nneg i32 %99 to i64
  %101 = getelementptr inbounds nuw i32, ptr %12, i64 %100
  %102 = load i32, ptr %101, align 4, !tbaa !6
  %103 = add i32 %102, 1
  store i32 %103, ptr %101, align 4, !tbaa !6
  %104 = lshr i32 %.val107, 24
  %105 = zext nneg i32 %104 to i64
  %106 = getelementptr inbounds nuw i32, ptr %13, i64 %105
  %107 = load i32, ptr %106, align 4, !tbaa !6
  %108 = add i32 %107, 1
  store i32 %108, ptr %106, align 4, !tbaa !6
  %.098 = getelementptr inbounds nuw i8, ptr %.pn113, i64 20
  %109 = icmp ult ptr %.098, %.ptr120
  br i1 %109, label %.lr.ph, label %.preheader111, !llvm.loop !13

.lr.ph117:                                        ; preds = %.preheader111, %.lr.ph117
  %.199116 = phi ptr [ %110, %.lr.ph117 ], [ %.pn.lcssa, %.preheader111 ]
  %110 = getelementptr inbounds nuw i8, ptr %.199116, i64 1
  %111 = load i8, ptr %.199116, align 1, !tbaa !3
  %112 = zext i8 %111 to i64
  %113 = getelementptr inbounds nuw i32, ptr %5, i64 %112
  %114 = load i32, ptr %113, align 4, !tbaa !6
  %115 = add i32 %114, 1
  store i32 %115, ptr %113, align 4, !tbaa !6
  %116 = icmp ult ptr %110, %.ptr
  br i1 %116, label %.lr.ph117, label %.preheader110.preheader, !llvm.loop !14

.preheader110.preheader:                          ; preds = %.lr.ph117, %.preheader111
  br label %.preheader110

.preheader110:                                    ; preds = %.preheader110.preheader, %.preheader110
  %indvars.iv = phi i64 [ %indvars.iv.next, %.preheader110 ], [ 0, %.preheader110.preheader ]
  %.0100118 = phi i32 [ %spec.select, %.preheader110 ], [ 0, %.preheader110.preheader ]
  %117 = getelementptr inbounds nuw i32, ptr %11, i64 %indvars.iv
  %118 = load i32, ptr %117, align 4, !tbaa !6
  %119 = getelementptr inbounds nuw i32, ptr %12, i64 %indvars.iv
  %120 = load i32, ptr %119, align 4, !tbaa !6
  %121 = add i32 %120, %118
  %122 = getelementptr inbounds nuw i32, ptr %13, i64 %indvars.iv
  %123 = load i32, ptr %122, align 4, !tbaa !6
  %124 = add i32 %121, %123
  %125 = getelementptr inbounds nuw i32, ptr %5, i64 %indvars.iv
  %126 = load i32, ptr %125, align 4, !tbaa !6
  %127 = add i32 %124, %126
  store i32 %127, ptr %125, align 4, !tbaa !6
  %spec.select = tail call i32 @llvm.umax.i32(i32 %127, i32 %.0100118)
  %indvars.iv.next = add nuw nsw i64 %indvars.iv, 1
  %exitcond.not = icmp eq i64 %indvars.iv.next, 256
  br i1 %exitcond.not, label %.preheader, label %.preheader110, !llvm.loop !15

.preheader:                                       ; preds = %.preheader110, %.preheader
  %.0 = phi i32 [ %131, %.preheader ], [ 255, %.preheader110 ]
  %128 = zext i32 %.0 to i64
  %129 = getelementptr inbounds nuw i32, ptr %5, i64 %128
  %130 = load i32, ptr %129, align 4, !tbaa !6
  %.not103 = icmp eq i32 %130, 0
  %131 = add i32 %.0, -1
  br i1 %.not103, label %.preheader, label %132, !llvm.loop !16

132:                                              ; preds = %.preheader
  %.not104 = icmp eq i32 %4, 0
  br i1 %.not104, label %136, label %133

133:                                              ; preds = %132
  %134 = load i32, ptr %1, align 4, !tbaa !6
  %135 = icmp ugt i32 %.0, %134
  br i1 %135, label %138, label %136

136:                                              ; preds = %132, %133
  store i32 %.0, ptr %1, align 4, !tbaa !6
  tail call void @llvm.memmove.p0.p0.i64(ptr align 4 %0, ptr nonnull align 4 %5, i64 %10, i1 false)
  %137 = zext i32 %spec.select to i64
  br label %138

138:                                              ; preds = %133, %136, %14
  %.095 = phi i64 [ 0, %14 ], [ %137, %136 ], [ -48, %133 ]
  ret i64 %.095
}